; Function Attrs: inlinehint mustprogress nounwind ssp uwtable
define internal fastcc void @_ZN6open3d8geometry12_GLOBAL__N_111DisjointSetD2Ev(ptr noundef nonnull readonly align 8 captures(none) dereferenceable(48) %0) unnamed_addr #18 align 2 personality ptr @__gxx_personality_v0 {
  %2 = getelementptr inbounds nuw i8, ptr %0, i64 24
  %3 = load ptr, ptr %2, align 8, !tbaa !48
  %.not.i.i.i = icmp eq ptr %3, null
  br i1 %.not.i.i.i, label %_ZNSt6vectorImSaImEED2Ev.exit, label %4

4:                                                ; preds = %1
  %5 = getelementptr inbounds nuw i8, ptr %0, i64 40
  %6 = load ptr, ptr %5, align 8, !tbaa !50
  %7 = ptrtoint ptr %6 to i64
  %8 = ptrtoint ptr %3 to i64
  %9 = sub i64 %7, %8
  tail call void @_ZdlPvm(ptr noundef nonnull %3, i64 noundef %9) #36
  br label %_ZNSt6vectorImSaImEED2Ev.exit

_ZNSt6vectorImSaImEED2Ev.exit:                    ; preds = %1, %4
  %10 = load ptr, ptr %0, align 8, !tbaa !48
  %.not.i.i.i1 = icmp eq ptr %10, null
  br i1 %.not.i.i.i1, label %_ZNSt6vectorImSaImEED2Ev.exit2, label %11

11:                                               ; preds = %_ZNSt6vectorImSaImEED2Ev.exit
  %12 = getelementptr inbounds nuw i8, ptr %0, i64 16
  %13 = load ptr, ptr %12, align 8, !tbaa !50
  %14 = ptrtoint ptr %13 to i64
  %15 = ptrtoint ptr %10 to i64
  %16 = sub i64 %14, %15
  tail call void @_ZdlPvm(ptr noundef nonnull %10, i64 noundef %16) #36
  br label %_ZNSt6vectorImSaImEED2Ev.exit2

_ZNSt6vectorImSaImEED2Ev.exit2:                   ; preds = %_ZNSt6vectorImSaImEED2Ev.exit, %11
  ret void
}